Certificate:
    Data:
        Version: 3 (0x2)
        Serial Number: 1 (0x1)
    Signature Algorithm: sha256WithRSAEncryption
        Issuer: C=AU, ST=Some-State, O=Internet Widgits Pty Ltd
        Validity
            Not Before: Jul  8 07:17:47 2019 GMT
            Not After : Apr 27 07:17:47 2022 GMT
        Subject: C=AU, ST=Some-State, O=Internet Widgits Pty Ltd
        Subject Public Key Info:
            Public Key Algorithm: rsaEncryption
                Public-Key: (2048 bit)
                Modulus:
                    00:b4:7d:90:34:5c:57:ee:ab:c1:e7:9e:cd:5c:8e:
                    01:97:14:a4:50:02:ad:ec:66:df:40:0b:74:e2:4d:
                    b4:a1:b5:6a:15:6e:b1:f9:a5:ee:e4:87:71:60:6c:
                    af:d5:3e:21:d7:70:22:4f:05:cc:fe:31:e6:a4:d7:
                    cd:df:c4:ae:66:f2:43:80:fd:f8:5d:87:e7:01:85:
                    cc:1a:59:1a:cb:54:8f:8d:58:8c:e0:aa:14:1f:63:
                    c5:88:db:61:e7:58:96:8b:16:c6:38:2a:0e:e5:90:
                    60:e6:81:46:54:1d:8b:30:23:35:2d:76:75:12:96:
                    07:de:88:d6:08:8f:ce:09:e5:c4:01:95:88:05:9c:
                    a3:3d:66:8a:d2:2b:58:72:ec:94:df:57:0b:f3:fa:
                    a7:e3:99:ff:f3:61:d7:8a:70:cc:3e:1b:a4:0d:d6:
                    1a:e4:f5:c6:59:c9:14:ac:9a:d2:e0:34:f9:71:73:
                    1b:db:53:c8:fb:02:89:0f:df:68:c5:fe:0f:e4:8c:
                    8c:6d:5c:87:80:41:59:67:51:99:00:24:43:13:7e:
                    b0:f8:41:a2:7e:97:87:ae:2f:74:38:f0:eb:dc:59:
                    39:20:eb:ea:a8:19:97:2c:fe:f5:cd:4a:6e:f7:55:
                    82:b6:70:48:1b:f4:4f:6f:67:8f:07:44:22:8c:c4:
                    ac:1d
                Exponent: 65537 (0x10001)
        X509v3 extensions:
            X509v3 Key Usage: 
                Digital Signature
            X509v3 Extended Key Usage: 
                Code Signing
    Signature Algorithm: sha256WithRSAEncryption
         62:c2:e7:90:d5:2b:08:c6:4c:88:59:0d:93:43:d9:30:62:f1:
         16:25:71:62:1e:ac:8f:43:c9:eb:7f:db:c8:f5:b4:65:b4:de:
         53:71:6c:23:22:65:d5:ed:6f:4c:cc:95:db:3f:e2:f3:fd:44:
         0b:42:eb:d6:b7:84:51:2f:96:92:8e:cc:ec:8a:6c:b4:45:46:
         10:ef:67:04:dd:b9:d4:a0:01:86:14:31:c7:4d:eb:3b:ac:85:
         80:aa:38:8b:b9:65:95:08:f0:48:e4:29:8b:e4:19:80:6b:3b:
         56:69:18:8b:cc:51:77:a2:82:93:15:c5:34:f0:84:9b:72:9a:
         1d:85:35:a5:de:26:50:6a:bd:d2:8a:9a:be:e5:dc:4d:e1:4f:
         da:40:b5:d6:0f:6a:28:20:12:4c:00:c3:d5:aa:e5:53:20:71:
         ca:3d:d5:36:82:f2:84:10:24:3f:61:fe:57:99:f2:d2:14:1a:
         4d:32:4a:c7:f0:fa:af:4d:57:2e:ea:e2:66:5c:e2:bb:62:a8:
         c0:fb:5e:55:a3:46:ba:9f:01:11:c2:c6:8d:05:d4:02:22:53:
         65:b1:87:6d:37:22:4c:64:b9:bf:e0:a6:3f:33:e8:52:40:0e:
         66:8c:13:c8:a8:5e:1c:d1:e7:f3:5b:00:87:ad:2c:b2:1f:c8:
         d8:1b:51:df
-----BEGIN CERTIFICATE-----
MIIDKTCCAhGgAwIBAgIBATANBgkqhkiG9w0BAQsFADBFMQswCQYDVQQGEwJBVTET
MBEGA1UECAwKU29tZS1TdGF0ZTEhMB8GA1UECgwYSW50ZXJuZXQgV2lkZ2l0cyBQ
dHkgTHRkMB4XDTE5MDcwODA3MTc0N1oXDTIyMDQyNzA3MTc0N1owRTELMAkGA1UE
BhMCQVUxEzARBgNVBAgMClNvbWUtU3RhdGUxITAfBgNVBAoMGEludGVybmV0IFdp
ZGdpdHMgUHR5IEx0ZDCCASIwDQYJKoZIhvcNAQEBBQADggEPADCCAQoCggEBALR9
kDRcV+6rweeezVyOAZcUpFACrexm30ALdOJNtKG1ahVusfml7uSHcWBsr9U+Iddw
Ik8FzP4x5qTXzd/ErmbyQ4D9+F2H5wGFzBpZGstUj41YjOCqFB9jxYjbYedYlosW
xjgqDuWQYOaBRlQdizAjNS12dRKWB96I1giPzgnlxAGViAWcoz1mitIrWHLslN9X
C/P6p+OZ//Nh14pwzD4bpA3WGuT1xlnJFKya0uA0+XFzG9tTyPsCiQ/faMX+D+SM
jG1ch4BBWWdRmQAkQxN+sPhBon6Xh64vdDjw69xZOSDr6qgZlyz+9c1KbvdVgrZw
SBv0T29njwdEIozErB0CAwEAAaMkMCIwCwYDVR0PBAQDAgeAMBMGA1UdJQQMMAoG
CCsGAQUFBwMDMA0GCSqGSIb3DQEBCwUAA4IBAQBiwueQ1SsIxkyIWQ2TQ9kwYvEW
JXFiHqyPQ8nrf9vI9bRltN5TcWwjImXV7W9MzJXbP+Lz/UQLQuvWt4RRL5aSjszs
imy0RUYQ72cE3bnUoAGGFDHHTes7rIWAqjiLuWWVCPBI5CmL5BmAaztWaRiLzFF3
ooKTFcU08ISbcpodhTWl3iZQar3Sipq+5dxN4U/aQLXWD2ooIBJMAMPVquVTIHHK
PdU2gvKEECQ/Yf5XmfLSFBpNMkrH8PqvTVcu6uJmXOK7YqjA+15Vo0a6nwERwsaN
BdQCIlNlsYdtNyJMZLm/4KY/M+hSQA5mjBPIqF4c0efzWwCHrSyyH8jYG1Hf
-----END CERTIFICATE-----
