Certificate:
    Data:
        Version: 3 (0x2)
        Serial Number: 2 (0x2)
    Signature Algorithm: sha256WithRSAEncryption
        Issuer: C=AU, ST=Some-State, O=Internet Widgits Pty Ltd
        Validity
            Not Before: Sep 14 00:51:53 2016 GMT
            Not After : Jul  5 00:51:53 2019 GMT
        Subject: C=AU, ST=Some-State, O=Internet Widgits Pty Ltd
        Subject Public Key Info:
            Public Key Algorithm: rsaEncryption
                Public-Key: (2048 bit)
                Modulus:
                    00:d8:45:db:3f:b7:7e:7b:21:e5:6b:07:59:8a:90:
                    a1:9d:8c:f9:0f:34:b2:11:c9:65:d8:d9:2e:12:80:
                    09:c5:3e:00:88:4c:85:3c:95:90:c0:40:28:3a:f7:
                    45:47:27:1f:78:fb:df:e8:03:d5:da:09:f7:48:bf:
                    01:a4:42:5a:e1:2d:89:de:3a:47:59:a7:15:ea:e3:
                    a3:53:1c:d2:da:d3:49:90:a8:91:72:01:88:47:59:
                    f9:c1:3a:c0:d7:e5:09:b1:58:06:28:90:7a:a1:0b:
                    e5:11:05:33:83:b3:d8:48:78:b6:50:e0:ed:3c:a4:
                    f3:b2:fd:f7:c5:41:b4:d8:1c:64:cb:3f:05:88:02:
                    5a:3e:0f:3d:a0:02:57:2b:30:08:e4:c9:bd:4f:dc:
                    b4:21:65:97:cb:6f:32:04:80:46:7c:53:4a:ac:86:
                    8d:f1:6f:3f:8a:d2:09:b0:1f:9d:1d:1d:d2:59:09:
                    73:44:40:bd:ff:fb:f8:b2:e6:71:41:73:6e:3f:e2:
                    56:ef:2f:cd:b4:1c:c5:6f:d6:aa:02:14:72:76:94:
                    0c:22:37:6b:ce:64:39:80:55:42:dc:71:f7:93:65:
                    2d:ed:c1:76:82:cb:98:80:aa:80:27:49:2c:56:0a:
                    af:a9:9f:eb:f0:24:85:9e:a7:6a:e2:8a:ca:20:4c:
                    47:9b
                Exponent: 65537 (0x10001)
        X509v3 extensions:
            X509v3 Key Usage: 
                Digital Signature
            X509v3 Extended Key Usage: 
                Code Signing
    Signature Algorithm: sha256WithRSAEncryption
         b9:8d:b6:53:96:fa:bd:91:b4:24:86:12:ad:b9:40:eb:b1:33:
         e2:9a:3a:80:3a:66:bf:80:ff:86:d5:60:f5:7e:ec:32:65:74:
         12:9f:a9:f1:65:67:e1:a9:20:e9:15:9a:5b:ce:c6:d3:57:8a:
         a8:97:e1:c3:34:8e:e0:5a:44:2c:fc:9c:e2:eb:35:cb:99:5e:
         37:10:3d:66:29:d4:51:41:8a:f8:0a:76:0f:c9:7a:a4:f9:bb:
         87:79:d9:3c:ac:62:a3:b1:5e:23:5f:40:c4:c8:e4:fb:9b:a4:
         5c:03:01:ec:07:85:2a:75:f7:02:8b:d5:fc:c9:bd:c0:7c:9f:
         54:08:c4:48:3e:6e:e8:0c:ad:94:a5:19:d4:ce:91:d0:78:42:
         ec:b6:51:13:6a:0a:40:61:4d:70:92:14:70:6d:50:a4:65:b2:
         e9:c4:0d:ee:64:9a:aa:5a:84:69:01:66:dd:87:d8:0e:ac:45:
         af:b8:42:7c:36:cd:3c:64:66:36:28:68:95:72:45:e8:9e:03:
         2d:0e:9b:79:c8:d4:70:6f:c5:87:42:27:3c:d6:48:19:1f:b9:
         40:e7:a5:ca:31:82:7f:fe:c3:79:64:17:dc:f0:5f:3f:35:6e:
         86:8b:1d:78:c0:6a:81:b0:39:47:68:b0:5e:88:d2:b5:9b:be:
         f3:16:0e:f2
-----BEGIN CERTIFICATE-----
MIIDKTCCAhGgAwIBAgIBAjANBgkqhkiG9w0BAQsFADBFMQswCQYDVQQGEwJBVTET
MBEGA1UECAwKU29tZS1TdGF0ZTEhMB8GA1UECgwYSW50ZXJuZXQgV2lkZ2l0cyBQ
dHkgTHRkMB4XDTE2MDkxNDAwNTE1M1oXDTE5MDcwNTAwNTE1M1owRTELMAkGA1UE
BhMCQVUxEzARBgNVBAgMClNvbWUtU3RhdGUxITAfBgNVBAoMGEludGVybmV0IFdp
ZGdpdHMgUHR5IEx0ZDCCASIwDQYJKoZIhvcNAQEBBQADggEPADCCAQoCggEBANhF
2z+3fnsh5WsHWYqQoZ2M+Q80shHJZdjZLhKACcU+AIhMhTyVkMBAKDr3RUcnH3j7
3+gD1doJ90i/AaRCWuEtid46R1mnFerjo1Mc0trTSZCokXIBiEdZ+cE6wNflCbFY
BiiQeqEL5REFM4Oz2Eh4tlDg7Tyk87L998VBtNgcZMs/BYgCWj4PPaACVyswCOTJ
vU/ctCFll8tvMgSARnxTSqyGjfFvP4rSCbAfnR0d0lkJc0RAvf/7+LLmcUFzbj/i
Vu8vzbQcxW/WqgIUcnaUDCI3a85kOYBVQtxx95NlLe3BdoLLmICqgCdJLFYKr6mf
6/AkhZ6nauKKyiBMR5sCAwEAAaMkMCIwCwYDVR0PBAQDAgeAMBMGA1UdJQQMMAoG
CCsGAQUFBwMDMA0GCSqGSIb3DQEBCwUAA4IBAQC5jbZTlvq9kbQkhhKtuUDrsTPi
mjqAOma/gP+G1WD1fuwyZXQSn6nxZWfhqSDpFZpbzsbTV4qol+HDNI7gWkQs/Jzi
6zXLmV43ED1mKdRRQYr4CnYPyXqk+buHedk8rGKjsV4jX0DEyOT7m6RcAwHsB4Uq
dfcCi9X8yb3AfJ9UCMRIPm7oDK2UpRnUzpHQeELstlETagpAYU1wkhRwbVCkZbLp
xA3uZJqqWoRpAWbdh9gOrEWvuEJ8Ns08ZGY2KGiVckXongMtDpt5yNRwb8WHQic8
1kgZH7lA56XKMYJ//sN5ZBfc8F8/NW6Gix14wGqBsDlHaLBeiNK1m77zFg7y
-----END CERTIFICATE-----
